target datalayout = "e-m:e-p270:32:32-p271:32:32-p272:64:64-i64:64-i128:128-f80:128-n8:16:32:64-S128"
target triple = "x86_64-pc-linux-gnu"

%"class.llvm::StringRef" = type { ptr, i64 }
%"class.llvm::DWARFContext" = type <{ %"class.llvm::DIContext.base", [4 x i8], %"class.std::unique_ptr", i32, [4 x i8], %"class.std::function", %"class.std::function", %"class.std::unique_ptr.2", i8, [7 x i8] }>
%"class.llvm::DIContext.base" = type <{ ptr, i32 }>
%"class.std::unique_ptr" = type { %"struct.std::__uniq_ptr_data" }
%"struct.std::__uniq_ptr_data" = type { %"class.std::__uniq_ptr_impl" }
%"class.std::__uniq_ptr_impl" = type { %"class.std::tuple" }
%"class.std::tuple" = type { %"struct.std::_Tuple_impl" }
%"struct.std::_Tuple_impl" = type { %"struct.std::_Head_base.1" }
%"struct.std::_Head_base.1" = type { ptr }
%"class.std::function" = type { %"class.std::_Function_base", ptr }
%"class.std::_Function_base" = type { %"union.std::_Any_data", ptr }
%"union.std::_Any_data" = type { %"union.std::_Nocopy_types" }
%"union.std::_Nocopy_types" = type { { i64, i64 } }
%"class.std::unique_ptr.2" = type { %"struct.std::__uniq_ptr_data.3" }
%"struct.std::__uniq_ptr_data.3" = type { %"class.std::__uniq_ptr_impl.4" }
%"class.std::__uniq_ptr_impl.4" = type { %"class.std::tuple.5" }
%"class.std::tuple.5" = type { %"struct.std::_Tuple_impl.6" }
%"struct.std::_Tuple_impl.6" = type { %"struct.std::_Head_base.9" }
%"struct.std::_Head_base.9" = type { ptr }

; Function Attrs: mustprogress nounwind uwtable
define linkonce_odr hidden noundef nonnull align 8 dereferenceable(8) ptr @_ZNSt10_Head_baseILm0EPKN4llvm11DWARFObjectELb0EE7_M_headERKS4_(ptr noundef nonnull align 8 dereferenceable(8) %0) #0 comdat align 2 {
  %2 = alloca ptr, align 8
  store ptr %0, ptr %2, align 8
  %3 = load ptr, ptr %2, align 8
  %4 = getelementptr inbounds nuw %"struct.std::_Head_base.9", ptr %3, i32 0, i32 0
  ret ptr %4
}

; Function Attrs: mustprogress nounwind uwtable
define linkonce_odr hidden noundef nonnull align 8 dereferenceable(8) ptr @_ZNSt11_Tuple_implILm0EJPKN4llvm11DWARFObjectESt14default_deleteIS2_EEE7_M_headERKS6_(ptr noundef nonnull align 8 dereferenceable(8) %0) #0 comdat align 2 {
  %2 = alloca ptr, align 8
  store ptr %0, ptr %2, align 8
  %3 = load ptr, ptr %2, align 8
  %4 = call noundef nonnull align 8 dereferenceable(8) ptr @_ZNSt10_Head_baseILm0EPKN4llvm11DWARFObjectELb0EE7_M_headERKS4_(ptr noundef nonnull align 8 dereferenceable(8) %3) #12
  ret ptr %4
}

; Function Attrs: mustprogress nounwind uwtable
define linkonce_odr noundef nonnull align 8 dereferenceable(8) ptr @_ZSt12__get_helperILm0EPKN4llvm11DWARFObjectEJSt14default_deleteIS2_EEERKT0_RKSt11_Tuple_implIXT_EJS6_DpT1_EE(ptr noundef nonnull align 8 dereferenceable(8) %0) #0 comdat {
  %2 = alloca ptr, align 8
  store ptr %0, ptr %2, align 8
  %3 = load ptr, ptr %2, align 8
  %4 = call noundef nonnull align 8 dereferenceable(8) ptr @_ZNSt11_Tuple_implILm0EJPKN4llvm11DWARFObjectESt14default_deleteIS2_EEE7_M_headERKS6_(ptr noundef nonnull align 8 dereferenceable(8) %3) #12
  ret ptr %4
}

; Function Attrs: mustprogress nounwind uwtable
define linkonce_odr noundef nonnull align 8 dereferenceable(8) ptr @_ZSt3getILm0EJPKN4llvm11DWARFObjectESt14default_deleteIS2_EEERKNSt13tuple_elementIXT_ESt5tupleIJDpT0_EEE4typeERKSA_(ptr noundef nonnull align 8 dereferenceable(8) %0) #0 comdat {
  %2 = alloca ptr, align 8
  store ptr %0, ptr %2, align 8
  %3 = load ptr, ptr %2, align 8
  %4 = call noundef nonnull align 8 dereferenceable(8) ptr @_ZSt12__get_helperILm0EPKN4llvm11DWARFObjectEJSt14default_deleteIS2_EEERKT0_RKSt11_Tuple_implIXT_EJS6_DpT1_EE(ptr noundef nonnull align 8 dereferenceable(8) %3) #12
  ret ptr %4
}

; Function Attrs: mustprogress nounwind uwtable
define linkonce_odr hidden noundef ptr @_ZNKSt15__uniq_ptr_implIKN4llvm11DWARFObjectESt14default_deleteIS2_EE6_M_ptrEv(ptr noundef nonnull align 8 dereferenceable(8) %0) #0 comdat align 2 {
  %2 = alloca ptr, align 8
  store ptr %0, ptr %2, align 8
  %3 = load ptr, ptr %2, align 8
  %4 = getelementptr inbounds nuw %"class.std::__uniq_ptr_impl.4", ptr %3, i32 0, i32 0
  %5 = call noundef nonnull align 8 dereferenceable(8) ptr @_ZSt3getILm0EJPKN4llvm11DWARFObjectESt14default_deleteIS2_EEERKNSt13tuple_elementIXT_ESt5tupleIJDpT0_EEE4typeERKSA_(ptr noundef nonnull align 8 dereferenceable(8) %4) #12
  %6 = load ptr, ptr %5, align 8
  ret ptr %6
}

; Function Attrs: mustprogress nounwind uwtable
define linkonce_odr hidden noundef ptr @_ZNKSt10unique_ptrIKN4llvm11DWARFObjectESt14default_deleteIS2_EE3getEv(ptr noundef nonnull align 8 dereferenceable(8) %0) #0 comdat align 2 {
  %2 = alloca ptr, align 8
  store ptr %0, ptr %2, align 8
  %3 = load ptr, ptr %2, align 8
  %4 = getelementptr inbounds nuw %"class.std::unique_ptr.2", ptr %3, i32 0, i32 0
  %5 = call noundef ptr @_ZNKSt15__uniq_ptr_implIKN4llvm11DWARFObjectESt14default_deleteIS2_EE6_M_ptrEv(ptr noundef nonnull align 8 dereferenceable(8) %4) #12
  ret ptr %5
}

; Function Attrs: mustprogress nounwind uwtable
define linkonce_odr hidden noundef nonnull align 8 dereferenceable(32) ptr @_ZNKSt10unique_ptrIKN4llvm11DWARFObjectESt14default_deleteIS2_EEdeEv(ptr noundef nonnull align 8 dereferenceable(8) %0) #0 comdat align 2 {
  %2 = alloca ptr, align 8
  store ptr %0, ptr %2, align 8
  %3 = load ptr, ptr %2, align 8
  br label %4

4:                                                ; preds = %1
  br label %5

5:                                                ; preds = %4
  %6 = call noundef ptr @_ZNKSt10unique_ptrIKN4llvm11DWARFObjectESt14default_deleteIS2_EE3getEv(ptr noundef nonnull align 8 dereferenceable(8) %3) #12
  ret ptr %6
}

; Function Attrs: mustprogress nounwind uwtable
define linkonce_odr hidden noundef nonnull align 8 dereferenceable(32) ptr @_ZNK4llvm12DWARFContext11getDWARFObjEv(ptr noundef nonnull align 8 dereferenceable(105) %0) #0 comdat align 2 {
  %2 = alloca ptr, align 8
  store ptr %0, ptr %2, align 8
  %3 = load ptr, ptr %2, align 8
  %4 = getelementptr inbounds nuw %"class.llvm::DWARFContext", ptr %3, i32 0, i32 7
  %5 = call noundef nonnull align 8 dereferenceable(32) ptr @_ZNKSt10unique_ptrIKN4llvm11DWARFObjectESt14default_deleteIS2_EEdeEv(ptr noundef nonnull align 8 dereferenceable(8) %4) #12
  ret ptr %5
}

; Function Attrs: mustprogress nounwind uwtable
define dso_local void @_ZN4llvm15DWARFUnitVector18addUnitsForSectionERNS_12DWARFContextERKNS_12DWARFSectionENS_16DWARFSectionKindE(ptr noundef nonnull align 8 dereferenceable(64) %0, ptr noundef nonnull align 8 dereferenceable(105) %1, ptr noundef nonnull align 8 dereferenceable(24) %2, i32 noundef %3) #0 align 2 {
  %5 = alloca ptr, align 8
  %6 = alloca ptr, align 8
  %7 = alloca ptr, align 8
  %8 = alloca i32, align 4
  %9 = alloca ptr, align 8
  %10 = alloca %"class.llvm::StringRef", align 8
  store ptr %0, ptr %5, align 8
  store ptr %1, ptr %6, align 8
  store ptr %2, ptr %7, align 8
  store i32 %3, ptr %8, align 4
  %11 = load ptr, ptr %5, align 8
  %12 = load ptr, ptr %6, align 8
  %13 = call noundef nonnull align 8 dereferenceable(32) ptr @_ZNK4llvm12DWARFContext11getDWARFObjEv(ptr noundef nonnull align 8 dereferenceable(105) %12)
  store ptr %13, ptr %9, align 8
  %14 = load ptr, ptr %6, align 8
  %15 = load ptr, ptr %9, align 8
  %16 = load ptr, ptr %7, align 8
  %17 = load ptr, ptr %6, align 8
  %18 = call noundef ptr @_ZN4llvm12DWARFContext14getDebugAbbrevEv(ptr noundef nonnull align 8 dereferenceable(105) %17)
  %19 = load ptr, ptr %9, align 8
  %20 = load ptr, ptr %19, align 8
  %21 = getelementptr inbounds ptr, ptr %20, i64 18
  %22 = load ptr, ptr %21, align 8
  %23 = call noundef nonnull align 8 dereferenceable(24) ptr %22(ptr noundef nonnull align 8 dereferenceable(32) %19)
  %24 = load ptr, ptr %9, align 8
  %25 = load ptr, ptr %24, align 8
  %26 = getelementptr inbounds ptr, ptr %25, i64 10
  %27 = load ptr, ptr %26, align 8
  %28 = call noundef nonnull align 8 dereferenceable(24) ptr %27(ptr noundef nonnull align 8 dereferenceable(32) %24)
  %29 = load ptr, ptr %9, align 8
  %30 = load ptr, ptr %29, align 8
  %31 = getelementptr inbounds ptr, ptr %30, i64 17
  %32 = load ptr, ptr %31, align 8
  %33 = call { ptr, i64 } %32(ptr noundef nonnull align 8 dereferenceable(32) %29)
  %34 = getelementptr inbounds nuw { ptr, i64 }, ptr %10, i32 0, i32 0
  %35 = extractvalue { ptr, i64 } %33, 0
  store ptr %35, ptr %34, align 8
  %36 = getelementptr inbounds nuw { ptr, i64 }, ptr %10, i32 0, i32 1
  %37 = extractvalue { ptr, i64 } %33, 1
  store i64 %37, ptr %36, align 8
  %38 = load ptr, ptr %9, align 8
  %39 = load ptr, ptr %38, align 8
  %40 = getelementptr inbounds ptr, ptr %39, i64 28
  %41 = load ptr, ptr %40, align 8
  %42 = call noundef nonnull align 8 dereferenceable(24) ptr %41(ptr noundef nonnull align 8 dereferenceable(32) %38)
  %43 = load ptr, ptr %9, align 8
  %44 = load ptr, ptr %43, align 8
  %45 = getelementptr inbounds ptr, ptr %44, i64 39
  %46 = load ptr, ptr %45, align 8
  %47 = call noundef nonnull align 8 dereferenceable(24) ptr %46(ptr noundef nonnull align 8 dereferenceable(32) %43)
  %48 = load ptr, ptr %9, align 8
  %49 = load ptr, ptr %48, align 8
  %50 = getelementptr inbounds ptr, ptr %49, i64 15
  %51 = load ptr, ptr %50, align 8
  %52 = call noundef nonnull align 8 dereferenceable(24) ptr %51(ptr noundef nonnull align 8 dereferenceable(32) %48)
  %53 = load ptr, ptr %9, align 8
  %54 = load ptr, ptr %53, align 8
  %55 = getelementptr inbounds ptr, ptr %54, i64 5
  %56 = load ptr, ptr %55, align 8
  %57 = call noundef zeroext i1 %56(ptr noundef nonnull align 8 dereferenceable(32) %53)
  %58 = load i32, ptr %8, align 4
  call void @_ZN4llvm15DWARFUnitVector12addUnitsImplERNS_12DWARFContextERKNS_11DWARFObjectERKNS_12DWARFSectionEPKNS_16DWARFDebugAbbrevEPS7_SC_NS_9StringRefES8_SC_S8_bbbNS_16DWARFSectionKindE(ptr noundef nonnull align 8 dereferenceable(64) %11, ptr noundef nonnull align 8 dereferenceable(105) %14, ptr noundef nonnull align 8 dereferenceable(32) %15, ptr noundef nonnull align 8 dereferenceable(24) %16, ptr noundef %18, ptr noundef %23, ptr noundef %28, ptr noundef byval(%"class.llvm::StringRef") align 8 %10, ptr noundef nonnull align 8 dereferenceable(24) %42, ptr noundef %47, ptr noundef nonnull align 8 dereferenceable(24) %52, i1 noundef zeroext %57, i1 noundef zeroext false, i1 noundef zeroext false, i32 noundef %58)
  ret void
}