; Function Attrs: mustprogress nounwind uwtable
define dso_local void @_ZN4llvm15DWARFUnitVector18addUnitsForSectionERNS_12DWARFContextERKNS_12DWARFSectionENS_16DWARFSectionKindE(ptr noundef nonnull align 8 dereferenceable(64) %0, ptr noundef nonnull align 8 dereferenceable(105) %1, ptr noundef nonnull align 8 dereferenceable(24) %2, i32 noundef %3) local_unnamed_addr #0 align 2 {
  %5 = alloca %"class.llvm::StringRef", align 8
  %6 = getelementptr inbounds nuw i8, ptr %1, i64 96
  %7 = load ptr, ptr %6, align 8
  %8 = tail call noundef ptr @_ZN4llvm12DWARFContext14getDebugAbbrevEv(ptr noundef nonnull align 8 dereferenceable(105) %1) #22
  %9 = load ptr, ptr %7, align 8
  %10 = getelementptr inbounds i8, ptr %9, i64 144
  %11 = load ptr, ptr %10, align 8
  %12 = tail call noundef nonnull align 8 dereferenceable(24) ptr %11(ptr noundef nonnull align 8 dereferenceable(32) %7) #22
  %13 = load ptr, ptr %7, align 8
  %14 = getelementptr inbounds i8, ptr %13, i64 80
  %15 = load ptr, ptr %14, align 8
  %16 = tail call noundef nonnull align 8 dereferenceable(24) ptr %15(ptr noundef nonnull align 8 dereferenceable(32) %7) #22
  %17 = load ptr, ptr %7, align 8
  %18 = getelementptr inbounds i8, ptr %17, i64 136
  %19 = load ptr, ptr %18, align 8
  %20 = tail call { ptr, i64 } %19(ptr noundef nonnull align 8 dereferenceable(32) %7) #22
  %21 = extractvalue { ptr, i64 } %20, 0
  store ptr %21, ptr %5, align 8
  %22 = getelementptr inbounds nuw i8, ptr %5, i64 8
  %23 = extractvalue { ptr, i64 } %20, 1
  store i64 %23, ptr %22, align 8
  %24 = load ptr, ptr %7, align 8
  %25 = getelementptr inbounds i8, ptr %24, i64 224
  %26 = load ptr, ptr %25, align 8
  %27 = tail call noundef nonnull align 8 dereferenceable(24) ptr %26(ptr noundef nonnull align 8 dereferenceable(32) %7) #22
  %28 = load ptr, ptr %7, align 8
  %29 = getelementptr inbounds i8, ptr %28, i64 312
  %30 = load ptr, ptr %29, align 8
  %31 = tail call noundef nonnull align 8 dereferenceable(24) ptr %30(ptr noundef nonnull align 8 dereferenceable(32) %7) #22
  %32 = load ptr, ptr %7, align 8
  %33 = getelementptr inbounds i8, ptr %32, i64 120
  %34 = load ptr, ptr %33, align 8
  %35 = tail call noundef nonnull align 8 dereferenceable(24) ptr %34(ptr noundef nonnull align 8 dereferenceable(32) %7) #22
  %36 = load ptr, ptr %7, align 8
  %37 = getelementptr inbounds i8, ptr %36, i64 40
  %38 = load ptr, ptr %37, align 8
  %39 = tail call noundef zeroext i1 %38(ptr noundef nonnull align 8 dereferenceable(32) %7) #22
  tail call void @_ZN4llvm15DWARFUnitVector12addUnitsImplERNS_12DWARFContextERKNS_11DWARFObjectERKNS_12DWARFSectionEPKNS_16DWARFDebugAbbrevEPS7_SC_NS_9StringRefES8_SC_S8_bbbNS_16DWARFSectionKindE(ptr noundef nonnull align 8 dereferenceable(64) %0, ptr noundef nonnull align 8 dereferenceable(105) %1, ptr noundef nonnull align 8 dereferenceable(32) %7, ptr noundef nonnull align 8 dereferenceable(24) %2, ptr noundef %8, ptr noundef nonnull %12, ptr noundef nonnull %16, ptr noundef nonnull byval(%"class.llvm::StringRef") align 8 %5, ptr noundef nonnull align 8 dereferenceable(24) %27, ptr noundef nonnull %31, ptr noundef nonnull align 8 dereferenceable(24) %35, i1 noundef zeroext %39, i1 noundef zeroext false, i1 noundef zeroext false, i32 noundef %3)
  ret void
}